; Function Attrs: mustprogress nofree norecurse nosync nounwind willreturn memory(read, inaccessiblemem: none) uwtable
define hidden noundef i64 @_ZNK9metaspace13FreeChunkList24calc_committed_word_sizeEv(ptr nocapture noundef nonnull readonly align 8 dereferenceable(20) %0) local_unnamed_addr #0 align 2 {
  %.06 = load ptr, ptr %0, align 8
  %.not7 = icmp eq ptr %.06, null
  br i1 %.not7, label %._crit_edge, label %.lr.ph

.lr.ph:                                           ; preds = %1, %.lr.ph
  %.09 = phi ptr [ %.0, %.lr.ph ], [ %.06, %1 ]
  %.058 = phi i64 [ %4, %.lr.ph ], [ 0, %1 ]
  %2 = getelementptr inbounds i8, ptr %.09, i64 16
  %3 = load i64, ptr %2, align 8
  %4 = add i64 %3, %.058
  %5 = getelementptr inbounds i8, ptr %.09, i64 48
  %.0 = load ptr, ptr %5, align 8
  %.not = icmp eq ptr %.0, null
  br i1 %.not, label %._crit_edge, label %.lr.ph, !llvm.loop !6

._crit_edge:                                      ; preds = %.lr.ph, %1
  %.05.lcssa = phi i64 [ 0, %1 ], [ %4, %.lr.ph ]
  ret i64 %.05.lcssa
}